target datalayout = "e-m:e-p270:32:32-p271:32:32-p272:64:64-i64:64-i128:128-f80:128-n8:16:32:64-S128"
target triple = "x86_64-pc-linux-gnu"

%struct.tjscalingfactor = type { i32, i32 }

@lossless = internal global i32 0, align 4
@exitStatus = internal global i32 0, align 4
@.str.75 = private unnamed_addr constant [21 x i8] c"TurboJPEG ERROR:\0A%s\0A\00", align 1
@TJUNSCALED = internal constant %struct.tjscalingfactor { i32 1, i32 1 }, align 4

; Function Attrs: nounwind uwtable
define internal void @decompTest(ptr noundef %0, ptr noundef %1, i64 noundef %2, i32 noundef %3, i32 noundef %4, i32 noundef %5, ptr noundef %6, i32 noundef %7) #0 {
  %9 = alloca ptr, align 8
  %10 = alloca ptr, align 8
  %11 = alloca i64, align 8
  %12 = alloca i32, align 4
  %13 = alloca i32, align 4
  %14 = alloca i32, align 4
  %15 = alloca ptr, align 8
  %16 = alloca i32, align 4
  %17 = alloca i32, align 4
  %18 = alloca i32, align 4
  %19 = alloca ptr, align 8
  %20 = alloca i32, align 4
  store ptr %0, ptr %9, align 8, !tbaa !21
  store ptr %1, ptr %10, align 8, !tbaa !11
  store i64 %2, ptr %11, align 8, !tbaa !17
  store i32 %3, ptr %12, align 4, !tbaa !4
  store i32 %4, ptr %13, align 4, !tbaa !4
  store i32 %5, ptr %14, align 4, !tbaa !4
  store ptr %6, ptr %15, align 8, !tbaa !11
  store i32 %7, ptr %16, align 4, !tbaa !4
  call void @llvm.lifetime.start.p0(i64 4, ptr %17) #12
  call void @llvm.lifetime.start.p0(i64 4, ptr %18) #12
  store i32 0, ptr %18, align 4, !tbaa !4
  call void @llvm.lifetime.start.p0(i64 8, ptr %19) #12
  store ptr null, ptr %19, align 8, !tbaa !21
  %21 = load i32, ptr @lossless, align 4, !tbaa !4
  %22 = icmp ne i32 %21, 0
  br i1 %22, label %23, label %33

23:                                               ; preds = %8
  %24 = load ptr, ptr %9, align 8, !tbaa !21
  %25 = load ptr, ptr %10, align 8, !tbaa !11
  %26 = load i64, ptr %11, align 8, !tbaa !17
  %27 = load i32, ptr %12, align 4, !tbaa !4
  %28 = load i32, ptr %13, align 4, !tbaa !4
  %29 = load i32, ptr %14, align 4, !tbaa !4
  %30 = load ptr, ptr %15, align 8, !tbaa !11
  %31 = load i32, ptr %16, align 4, !tbaa !4
  %32 = load i64, ptr @TJUNSCALED, align 4
  call void @_decompTest(ptr noundef %24, ptr noundef %25, i64 noundef %26, i32 noundef %27, i32 noundef %28, i32 noundef %29, ptr noundef %30, i32 noundef %31, i64 %32)
  store i32 1, ptr %20, align 4
  br label %142

33:                                               ; preds = %8
  %34 = call ptr @tj3GetScalingFactors(ptr noundef %18)
  store ptr %34, ptr %19, align 8, !tbaa !21
  %35 = load ptr, ptr %19, align 8, !tbaa !21
  %36 = icmp ne ptr %35, null
  br i1 %36, label %37, label %40

37:                                               ; preds = %33
  %38 = load i32, ptr %18, align 4, !tbaa !4
  %39 = icmp ne i32 %38, 0
  br i1 %39, label %43, label %40

40:                                               ; preds = %37, %33
  %41 = call ptr @tj3GetErrorStr(ptr noundef null)
  %42 = call i32 (ptr, ...) @printf(ptr noundef @.str.75, ptr noundef %41)
  store i32 -1, ptr @exitStatus, align 4, !tbaa !4
  br label %141

43:                                               ; preds = %37
  store i32 0, ptr %17, align 4, !tbaa !4
  br label %44

44:                                               ; preds = %137, %43
  %45 = load i32, ptr %17, align 4, !tbaa !4
  %46 = load i32, ptr %18, align 4, !tbaa !4
  %47 = icmp slt i32 %45, %46
  br i1 %47, label %48, label %140

48:                                               ; preds = %44
  %49 = load i32, ptr %16, align 4, !tbaa !4
  %50 = icmp eq i32 %49, 0
  br i1 %50, label %122, label %51

51:                                               ; preds = %48
  %52 = load i32, ptr %16, align 4, !tbaa !4
  %53 = icmp eq i32 %52, 3
  br i1 %53, label %122, label %54

54:                                               ; preds = %51
  %55 = load i32, ptr %16, align 4, !tbaa !4
  %56 = icmp eq i32 %55, 5
  br i1 %56, label %60, label %57

57:                                               ; preds = %54
  %58 = load i32, ptr %16, align 4, !tbaa !4
  %59 = icmp eq i32 %58, 6
  br i1 %59, label %60, label %84

60:                                               ; preds = %57, %54
  %61 = load ptr, ptr %19, align 8, !tbaa !21
  %62 = load i32, ptr %17, align 4, !tbaa !4
  %63 = sext i32 %62 to i64
  %64 = getelementptr inbounds %struct.tjscalingfactor, ptr %61, i64 %63
  %65 = getelementptr inbounds nuw %struct.tjscalingfactor, ptr %64, i32 0, i32 0
  %66 = load i32, ptr %65, align 4, !tbaa !41
  %67 = icmp eq i32 %66, 1
  br i1 %67, label %68, label %84

68:                                               ; preds = %60
  %69 = load ptr, ptr %19, align 8, !tbaa !21
  %70 = load i32, ptr %17, align 4, !tbaa !4
  %71 = sext i32 %70 to i64
  %72 = getelementptr inbounds %struct.tjscalingfactor, ptr %69, i64 %71
  %73 = getelementptr inbounds nuw %struct.tjscalingfactor, ptr %72, i32 0, i32 1
  %74 = load i32, ptr %73, align 4, !tbaa !43
  %75 = icmp eq i32 %74, 2
  br i1 %75, label %122, label %76

76:                                               ; preds = %68
  %77 = load ptr, ptr %19, align 8, !tbaa !21
  %78 = load i32, ptr %17, align 4, !tbaa !4
  %79 = sext i32 %78 to i64
  %80 = getelementptr inbounds %struct.tjscalingfactor, ptr %77, i64 %79
  %81 = getelementptr inbounds nuw %struct.tjscalingfactor, ptr %80, i32 0, i32 1
  %82 = load i32, ptr %81, align 4, !tbaa !43
  %83 = icmp eq i32 %82, 1
  br i1 %83, label %122, label %84

84:                                               ; preds = %76, %60, %57
  %85 = load i32, ptr %16, align 4, !tbaa !4
  %86 = icmp ne i32 %85, 5
  br i1 %86, label %87, label %136

87:                                               ; preds = %84
  %88 = load i32, ptr %16, align 4, !tbaa !4
  %89 = icmp ne i32 %88, 6
  br i1 %89, label %90, label %136

90:                                               ; preds = %87
  %91 = load ptr, ptr %19, align 8, !tbaa !21
  %92 = load i32, ptr %17, align 4, !tbaa !4
  %93 = sext i32 %92 to i64
  %94 = getelementptr inbounds %struct.tjscalingfactor, ptr %91, i64 %93
  %95 = getelementptr inbounds nuw %struct.tjscalingfactor, ptr %94, i32 0, i32 0
  %96 = load i32, ptr %95, align 4, !tbaa !41
  %97 = icmp eq i32 %96, 1
  br i1 %97, label %98, label %136

98:                                               ; preds = %90
  %99 = load ptr, ptr %19, align 8, !tbaa !21
  %100 = load i32, ptr %17, align 4, !tbaa !4
  %101 = sext i32 %100 to i64
  %102 = getelementptr inbounds %struct.tjscalingfactor, ptr %99, i64 %101
  %103 = getelementptr inbounds nuw %struct.tjscalingfactor, ptr %102, i32 0, i32 1
  %104 = load i32, ptr %103, align 4, !tbaa !43
  %105 = icmp eq i32 %104, 4
  br i1 %105, label %122, label %106

106:                                              ; preds = %98
  %107 = load ptr, ptr %19, align 8, !tbaa !21
  %108 = load i32, ptr %17, align 4, !tbaa !4
  %109 = sext i32 %108 to i64
  %110 = getelementptr inbounds %struct.tjscalingfactor, ptr %107, i64 %109
  %111 = getelementptr inbounds nuw %struct.tjscalingfactor, ptr %110, i32 0, i32 1
  %112 = load i32, ptr %111, align 4, !tbaa !43
  %113 = icmp eq i32 %112, 2
  br i1 %113, label %122, label %114

114:                                              ; preds = %106
  %115 = load ptr, ptr %19, align 8, !tbaa !21
  %116 = load i32, ptr %17, align 4, !tbaa !4
  %117 = sext i32 %116 to i64
  %118 = getelementptr inbounds %struct.tjscalingfactor, ptr %115, i64 %117
  %119 = getelementptr inbounds nuw %struct.tjscalingfactor, ptr %118, i32 0, i32 1
  %120 = load i32, ptr %119, align 4, !tbaa !43
  %121 = icmp eq i32 %120, 1
  br i1 %121, label %122, label %136

122:                                              ; preds = %114, %106, %98, %76, %68, %51, %48
  %123 = load ptr, ptr %9, align 8, !tbaa !21
  %124 = load ptr, ptr %10, align 8, !tbaa !11
  %125 = load i64, ptr %11, align 8, !tbaa !17
  %126 = load i32, ptr %12, align 4, !tbaa !4
  %127 = load i32, ptr %13, align 4, !tbaa !4
  %128 = load i32, ptr %14, align 4, !tbaa !4
  %129 = load ptr, ptr %15, align 8, !tbaa !11
  %130 = load i32, ptr %16, align 4, !tbaa !4
  %131 = load ptr, ptr %19, align 8, !tbaa !21
  %132 = load i32, ptr %17, align 4, !tbaa !4
  %133 = sext i32 %132 to i64
  %134 = getelementptr inbounds %struct.tjscalingfactor, ptr %131, i64 %133
  %135 = load i64, ptr %134, align 4
  call void @_decompTest(ptr noundef %123, ptr noundef %124, i64 noundef %125, i32 noundef %126, i32 noundef %127, i32 noundef %128, ptr noundef %129, i32 noundef %130, i64 %135)
  br label %136

136:                                              ; preds = %122, %114, %90, %87, %84
  br label %137

137:                                              ; preds = %136
  %138 = load i32, ptr %17, align 4, !tbaa !4
  %139 = add nsw i32 %138, 1
  store i32 %139, ptr %17, align 4, !tbaa !4
  br label %44, !llvm.loop !44

140:                                              ; preds = %44
  br label %141

141:                                              ; preds = %140, %40
  store i32 1, ptr %20, align 4
  br label %142

142:                                              ; preds = %141, %23
  call void @llvm.lifetime.end.p0(i64 8, ptr %19) #12
  call void @llvm.lifetime.end.p0(i64 4, ptr %18) #12
  call void @llvm.lifetime.end.p0(i64 4, ptr %17) #12
  ret void
}