; Function Attrs: nounwind uwtable
define internal fastcc void @decompTest(ptr noundef nonnull %0, ptr noundef %1, i64 noundef %2, i32 noundef range(i32 35, 49) %3, i32 noundef range(i32 35, 49) %4, i32 noundef %5, i32 noundef range(i32 0, 7) %6) unnamed_addr #0 {
  %8 = alloca i32, align 4
  call void @llvm.lifetime.start.p0(i64 4, ptr nonnull %8) #21
  store i32 0, ptr %8, align 4, !tbaa !9
  %.b = load i1, ptr @lossless, align 4
  br i1 %.b, label %9, label %10

9:                                                ; preds = %7
  tail call fastcc void @_decompTest(ptr noundef %0, ptr noundef %1, i64 noundef %2, i32 noundef %3, i32 noundef %4, i32 noundef %5, i32 noundef %6, i64 4294967297)
  br label %.loopexit

10:                                               ; preds = %7
  %11 = call ptr @tj3GetScalingFactors(ptr noundef nonnull %8) #21
  %12 = icmp ne ptr %11, null
  %13 = load i32, ptr %8, align 4
  %14 = icmp ne i32 %13, 0
  %or.cond = select i1 %12, i1 %14, i1 false
  br i1 %or.cond, label %.preheader, label %46

.preheader:                                       ; preds = %10
  %15 = icmp sgt i32 %13, 0
  br i1 %15, label %.lr.ph, label %.loopexit

.lr.ph:                                           ; preds = %.preheader
  switch i32 %6, label %.lr.ph.split [
    i32 3, label %.thread.us.preheader
    i32 0, label %.thread.us.preheader
  ]

.thread.us.preheader:                             ; preds = %.lr.ph, %.lr.ph
  br label %.thread.us

.thread.us:                                       ; preds = %.thread.us.preheader, %.thread.us
  %indvars.iv = phi i64 [ %indvars.iv.next, %.thread.us ], [ 0, %.thread.us.preheader ]
  %16 = getelementptr inbounds nuw %struct.tjscalingfactor, ptr %11, i64 %indvars.iv
  %17 = load i64, ptr %16, align 4
  call fastcc void @_decompTest(ptr noundef %0, ptr noundef %1, i64 noundef %2, i32 noundef %3, i32 noundef %4, i32 noundef %5, i32 noundef %6, i64 %17)
  %indvars.iv.next = add nuw nsw i64 %indvars.iv, 1
  %18 = load i32, ptr %8, align 4, !tbaa !9
  %19 = sext i32 %18 to i64
  %20 = icmp slt i64 %indvars.iv.next, %19
  br i1 %20, label %.thread.us, label %.loopexit, !llvm.loop !38

.lr.ph.split:                                     ; preds = %.lr.ph
  %21 = add nsw i32 %6, -5
  %or.cond5 = icmp ult i32 %21, 2
  br i1 %or.cond5, label %.lr.ph.split.split.us, label %.lr.ph.split.split.split.us

.lr.ph.split.split.us:                            ; preds = %.lr.ph.split, %.thread.us4
  %22 = phi i32 [ %31, %.thread.us4 ], [ %13, %.lr.ph.split ]
  %indvars.iv14 = phi i64 [ %indvars.iv.next15, %.thread.us4 ], [ 0, %.lr.ph.split ]
  %23 = getelementptr inbounds nuw %struct.tjscalingfactor, ptr %11, i64 %indvars.iv14
  %24 = load i32, ptr %23, align 4, !tbaa !39
  %25 = icmp eq i32 %24, 1
  br i1 %25, label %26, label %.thread.us4

26:                                               ; preds = %.lr.ph.split.split.us
  %27 = getelementptr inbounds nuw i8, ptr %23, i64 4
  %28 = load i32, ptr %27, align 4, !tbaa !41
  %.off.us = add i32 %28, -1
  %switch.us = icmp ult i32 %.off.us, 2
  br i1 %switch.us, label %29, label %.thread.us4

29:                                               ; preds = %26
  %30 = load i64, ptr %23, align 4
  call fastcc void @_decompTest(ptr noundef %0, ptr noundef %1, i64 noundef %2, i32 noundef %3, i32 noundef %4, i32 noundef %5, i32 noundef %6, i64 %30)
  %.pre17 = load i32, ptr %8, align 4, !tbaa !9
  br label %.thread.us4

.thread.us4:                                      ; preds = %29, %26, %.lr.ph.split.split.us
  %31 = phi i32 [ %.pre17, %29 ], [ %22, %26 ], [ %22, %.lr.ph.split.split.us ]
  %indvars.iv.next15 = add nuw nsw i64 %indvars.iv14, 1
  %32 = sext i32 %31 to i64
  %33 = icmp slt i64 %indvars.iv.next15, %32
  br i1 %33, label %.lr.ph.split.split.us, label %.loopexit, !llvm.loop !38

.lr.ph.split.split.split.us:                      ; preds = %.lr.ph.split, %.thread.us6
  %34 = phi i32 [ %43, %.thread.us6 ], [ %13, %.lr.ph.split ]
  %indvars.iv11 = phi i64 [ %indvars.iv.next12, %.thread.us6 ], [ 0, %.lr.ph.split ]
  %35 = getelementptr inbounds nuw %struct.tjscalingfactor, ptr %11, i64 %indvars.iv11
  %36 = load i32, ptr %35, align 4, !tbaa !39
  %37 = icmp eq i32 %36, 1
  br i1 %37, label %38, label %.thread.us6

38:                                               ; preds = %.lr.ph.split.split.split.us
  %39 = getelementptr inbounds nuw i8, ptr %35, i64 4
  %40 = load i32, ptr %39, align 4, !tbaa !41
  switch i32 %40, label %.thread.us6 [
    i32 4, label %41
    i32 2, label %41
    i32 1, label %41
  ]

41:                                               ; preds = %38, %38, %38
  %42 = load i64, ptr %35, align 4
  call fastcc void @_decompTest(ptr noundef %0, ptr noundef %1, i64 noundef %2, i32 noundef %3, i32 noundef %4, i32 noundef %5, i32 noundef %6, i64 %42)
  %.pre = load i32, ptr %8, align 4, !tbaa !9
  br label %.thread.us6

.thread.us6:                                      ; preds = %41, %38, %.lr.ph.split.split.split.us
  %43 = phi i32 [ %.pre, %41 ], [ %34, %38 ], [ %34, %.lr.ph.split.split.split.us ]
  %indvars.iv.next12 = add nuw nsw i64 %indvars.iv11, 1
  %44 = sext i32 %43 to i64
  %45 = icmp slt i64 %indvars.iv.next12, %44
  br i1 %45, label %.lr.ph.split.split.split.us, label %.loopexit, !llvm.loop !38

46:                                               ; preds = %10
  %47 = call ptr @tj3GetErrorStr(ptr noundef null) #21
  %48 = call i32 (ptr, ...) @printf(ptr noundef nonnull dereferenceable(1) @.str.75, ptr noundef %47)
  store i1 true, ptr @exitStatus, align 4
  br label %.loopexit

.loopexit:                                        ; preds = %.thread.us, %.thread.us6, %.thread.us4, %.preheader, %46, %9
  call void @llvm.lifetime.end.p0(i64 4, ptr nonnull %8) #21
  ret void
}